target datalayout = "e-m:e-p270:32:32-p271:32:32-p272:64:64-i64:64-i128:128-f80:128-n8:16:32:64-S128"
target triple = "x86_64-pc-linux-gnu"

%struct.png_struct_def = type { [1 x %struct.__jmp_buf_tag], ptr, ptr, i64, ptr, ptr, ptr, ptr, ptr, ptr, ptr, ptr, i8, i8, i32, i32, i32, i32, %struct.z_stream_s, i32, i32, i32, i32, i64, i32, i32, i32, ptr, ptr, i64, i32, i32, ptr, i16, i32, i16, i8, i8, i8, i8, i8, i8, i8, i8, i8, i8, i8, i8, i8, i8, i16, i8, i32, %struct.png_color_16_struct, %struct.png_color_16_struct, i32, i32, ptr, ptr, ptr, ptr, ptr, ptr, %struct.png_color_8_struct, %struct.png_color_8_struct, ptr, %struct.png_color_16_struct, ptr, ptr, ptr, ptr, ptr, ptr, ptr, ptr, ptr, i32, i32, i64, i64, i64, i64, i32, i32, ptr, ptr, [29 x i8], i32, ptr, ptr, i32, i32, ptr, i8, i8, i16, i16, ptr, i32, i8, ptr, ptr, ptr, ptr, ptr, ptr, ptr, i8, i32, i32, i32, i64, %struct.png_unknown_chunk_t, i64, ptr, i64, i32, i32, ptr, [4 x ptr], %struct.png_colorspace }
%struct.__jmp_buf_tag = type { [8 x i64], i32, %struct.__sigset_t }
%struct.__sigset_t = type { [16 x i64] }
%struct.z_stream_s = type { ptr, i32, i64, ptr, i32, i64, ptr, ptr, ptr, ptr, ptr, i32, i64, i64 }
%struct.png_color_8_struct = type { i8, i8, i8, i8, i8 }
%struct.png_color_16_struct = type { i8, i16, i16, i16, i16 }
%struct.png_unknown_chunk_t = type { [5 x i8], ptr, i64, i8 }
%struct.png_colorspace = type { i32, %struct.png_xy, %struct.png_XYZ, i16, i16 }
%struct.png_xy = type { i32, i32, i32, i32, i32, i32, i32, i32 }
%struct.png_XYZ = type { i32, i32, i32, i32, i32, i32, i32, i32, i32 }

@.str.51 = private unnamed_addr constant [36 x i8] c"unknown chunk exceeds memory limits\00", align 1

; Function Attrs: nounwind uwtable
define hidden void @png_crc_read(ptr noalias noundef %0, ptr noundef %1, i32 noundef %2) #0 {
  %4 = alloca ptr, align 8
  %5 = alloca ptr, align 8
  %6 = alloca i32, align 4
  store ptr %0, ptr %4, align 8
  store ptr %1, ptr %5, align 8
  store i32 %2, ptr %6, align 4
  %7 = load ptr, ptr %4, align 8
  %8 = icmp eq ptr %7, null
  br i1 %8, label %9, label %10

9:                                                ; preds = %3
  br label %19

10:                                               ; preds = %3
  %11 = load ptr, ptr %4, align 8
  %12 = load ptr, ptr %5, align 8
  %13 = load i32, ptr %6, align 4
  %14 = zext i32 %13 to i64
  call void @png_read_data(ptr noundef %11, ptr noundef %12, i64 noundef %14)
  %15 = load ptr, ptr %4, align 8
  %16 = load ptr, ptr %5, align 8
  %17 = load i32, ptr %6, align 4
  %18 = zext i32 %17 to i64
  call void @png_calculate_crc(ptr noundef %15, ptr noundef %16, i64 noundef %18)
  br label %19

19:                                               ; preds = %10, %9
  ret void
}

; Function Attrs: nounwind uwtable
define internal i32 @png_cache_unknown_chunk(ptr noalias noundef %0, i32 noundef %1) #0 {
  %3 = alloca i32, align 4
  %4 = alloca ptr, align 8
  %5 = alloca i32, align 4
  %6 = alloca i64, align 8
  store ptr %0, ptr %4, align 8
  store i32 %1, ptr %5, align 4
  store i64 -1, ptr %6, align 8
  %7 = load ptr, ptr %4, align 8
  %8 = getelementptr inbounds %struct.png_struct_def, ptr %7, i32 0, i32 112
  %9 = getelementptr inbounds %struct.png_unknown_chunk_t, ptr %8, i32 0, i32 1
  %10 = load ptr, ptr %9, align 8
  %11 = icmp ne ptr %10, null
  br i1 %11, label %12, label %21

12:                                               ; preds = %2
  %13 = load ptr, ptr %4, align 8
  %14 = load ptr, ptr %4, align 8
  %15 = getelementptr inbounds %struct.png_struct_def, ptr %14, i32 0, i32 112
  %16 = getelementptr inbounds %struct.png_unknown_chunk_t, ptr %15, i32 0, i32 1
  %17 = load ptr, ptr %16, align 8
  call void @png_free(ptr noundef %13, ptr noundef %17)
  %18 = load ptr, ptr %4, align 8
  %19 = getelementptr inbounds %struct.png_struct_def, ptr %18, i32 0, i32 112
  %20 = getelementptr inbounds %struct.png_unknown_chunk_t, ptr %19, i32 0, i32 1
  store ptr null, ptr %20, align 8
  br label %21

21:                                               ; preds = %12, %2
  %22 = load ptr, ptr %4, align 8
  %23 = getelementptr inbounds %struct.png_struct_def, ptr %22, i32 0, i32 111
  %24 = load i64, ptr %23, align 8
  %25 = icmp ugt i64 %24, 0
  br i1 %25, label %26, label %36

26:                                               ; preds = %21
  %27 = load ptr, ptr %4, align 8
  %28 = getelementptr inbounds %struct.png_struct_def, ptr %27, i32 0, i32 111
  %29 = load i64, ptr %28, align 8
  %30 = load i64, ptr %6, align 8
  %31 = icmp ult i64 %29, %30
  br i1 %31, label %32, label %36

32:                                               ; preds = %26
  %33 = load ptr, ptr %4, align 8
  %34 = getelementptr inbounds %struct.png_struct_def, ptr %33, i32 0, i32 111
  %35 = load i64, ptr %34, align 8
  store i64 %35, ptr %6, align 8
  br label %36

36:                                               ; preds = %32, %26, %21
  %37 = load i32, ptr %5, align 4
  %38 = zext i32 %37 to i64
  %39 = load i64, ptr %6, align 8
  %40 = icmp ule i64 %38, %39
  br i1 %40, label %41, label %117

41:                                               ; preds = %36
  %42 = load ptr, ptr %4, align 8
  %43 = getelementptr inbounds %struct.png_struct_def, ptr %42, i32 0, i32 26
  %44 = load i32, ptr %43, align 8
  %45 = lshr i32 %44, 24
  %46 = and i32 %45, 255
  %47 = trunc i32 %46 to i8
  %48 = load ptr, ptr %4, align 8
  %49 = getelementptr inbounds %struct.png_struct_def, ptr %48, i32 0, i32 112
  %50 = getelementptr inbounds %struct.png_unknown_chunk_t, ptr %49, i32 0, i32 0
  %51 = getelementptr inbounds [5 x i8], ptr %50, i64 0, i64 0
  %52 = getelementptr inbounds i8, ptr %51, i64 0
  store i8 %47, ptr %52, align 8
  %53 = load ptr, ptr %4, align 8
  %54 = getelementptr inbounds %struct.png_struct_def, ptr %53, i32 0, i32 26
  %55 = load i32, ptr %54, align 8
  %56 = lshr i32 %55, 16
  %57 = and i32 %56, 255
  %58 = trunc i32 %57 to i8
  %59 = load ptr, ptr %4, align 8
  %60 = getelementptr inbounds %struct.png_struct_def, ptr %59, i32 0, i32 112
  %61 = getelementptr inbounds %struct.png_unknown_chunk_t, ptr %60, i32 0, i32 0
  %62 = getelementptr inbounds [5 x i8], ptr %61, i64 0, i64 0
  %63 = getelementptr inbounds i8, ptr %62, i64 1
  store i8 %58, ptr %63, align 1
  %64 = load ptr, ptr %4, align 8
  %65 = getelementptr inbounds %struct.png_struct_def, ptr %64, i32 0, i32 26
  %66 = load i32, ptr %65, align 8
  %67 = lshr i32 %66, 8
  %68 = and i32 %67, 255
  %69 = trunc i32 %68 to i8
  %70 = load ptr, ptr %4, align 8
  %71 = getelementptr inbounds %struct.png_struct_def, ptr %70, i32 0, i32 112
  %72 = getelementptr inbounds %struct.png_unknown_chunk_t, ptr %71, i32 0, i32 0
  %73 = getelementptr inbounds [5 x i8], ptr %72, i64 0, i64 0
  %74 = getelementptr inbounds i8, ptr %73, i64 2
  store i8 %69, ptr %74, align 2
  %75 = load ptr, ptr %4, align 8
  %76 = getelementptr inbounds %struct.png_struct_def, ptr %75, i32 0, i32 26
  %77 = load i32, ptr %76, align 8
  %78 = and i32 %77, 255
  %79 = trunc i32 %78 to i8
  %80 = load ptr, ptr %4, align 8
  %81 = getelementptr inbounds %struct.png_struct_def, ptr %80, i32 0, i32 112
  %82 = getelementptr inbounds %struct.png_unknown_chunk_t, ptr %81, i32 0, i32 0
  %83 = getelementptr inbounds [5 x i8], ptr %82, i64 0, i64 0
  %84 = getelementptr inbounds i8, ptr %83, i64 3
  store i8 %79, ptr %84, align 1
  %85 = load ptr, ptr %4, align 8
  %86 = getelementptr inbounds %struct.png_struct_def, ptr %85, i32 0, i32 112
  %87 = getelementptr inbounds %struct.png_unknown_chunk_t, ptr %86, i32 0, i32 0
  %88 = getelementptr inbounds [5 x i8], ptr %87, i64 0, i64 0
  %89 = getelementptr inbounds i8, ptr %88, i64 4
  store i8 0, ptr %89, align 4
  %90 = load i32, ptr %5, align 4
  %91 = zext i32 %90 to i64
  %92 = load ptr, ptr %4, align 8
  %93 = getelementptr inbounds %struct.png_struct_def, ptr %92, i32 0, i32 112
  %94 = getelementptr inbounds %struct.png_unknown_chunk_t, ptr %93, i32 0, i32 2
  store i64 %91, ptr %94, align 8
  %95 = load ptr, ptr %4, align 8
  %96 = getelementptr inbounds %struct.png_struct_def, ptr %95, i32 0, i32 14
  %97 = load i32, ptr %96, align 4
  %98 = trunc i32 %97 to i8
  %99 = load ptr, ptr %4, align 8
  %100 = getelementptr inbounds %struct.png_struct_def, ptr %99, i32 0, i32 112
  %101 = getelementptr inbounds %struct.png_unknown_chunk_t, ptr %100, i32 0, i32 3
  store i8 %98, ptr %101, align 8
  %102 = load i32, ptr %5, align 4
  %103 = icmp eq i32 %102, 0
  br i1 %103, label %104, label %108

104:                                              ; preds = %41
  %105 = load ptr, ptr %4, align 8
  %106 = getelementptr inbounds %struct.png_struct_def, ptr %105, i32 0, i32 112
  %107 = getelementptr inbounds %struct.png_unknown_chunk_t, ptr %106, i32 0, i32 1
  store ptr null, ptr %107, align 8
  br label %116

108:                                              ; preds = %41
  %109 = load ptr, ptr %4, align 8
  %110 = load i32, ptr %5, align 4
  %111 = zext i32 %110 to i64
  %112 = call noalias ptr @png_malloc_warn(ptr noundef %109, i64 noundef %111)
  %113 = load ptr, ptr %4, align 8
  %114 = getelementptr inbounds %struct.png_struct_def, ptr %113, i32 0, i32 112
  %115 = getelementptr inbounds %struct.png_unknown_chunk_t, ptr %114, i32 0, i32 1
  store ptr %112, ptr %115, align 8
  br label %116

116:                                              ; preds = %108, %104
  br label %117

117:                                              ; preds = %116, %36
  %118 = load ptr, ptr %4, align 8
  %119 = getelementptr inbounds %struct.png_struct_def, ptr %118, i32 0, i32 112
  %120 = getelementptr inbounds %struct.png_unknown_chunk_t, ptr %119, i32 0, i32 1
  %121 = load ptr, ptr %120, align 8
  %122 = icmp eq ptr %121, null
  br i1 %122, label %123, label %131

123:                                              ; preds = %117
  %124 = load i32, ptr %5, align 4
  %125 = icmp ugt i32 %124, 0
  br i1 %125, label %126, label %131

126:                                              ; preds = %123
  %127 = load ptr, ptr %4, align 8
  %128 = load i32, ptr %5, align 4
  %129 = call i32 @png_crc_finish(ptr noundef %127, i32 noundef %128)
  %130 = load ptr, ptr %4, align 8
  call void @png_chunk_benign_error(ptr noundef %130, ptr noundef @.str.51)
  store i32 0, ptr %3, align 4
  br label %144

131:                                              ; preds = %123, %117
  %132 = load i32, ptr %5, align 4
  %133 = icmp ugt i32 %132, 0
  br i1 %133, label %134, label %141

134:                                              ; preds = %131
  %135 = load ptr, ptr %4, align 8
  %136 = load ptr, ptr %4, align 8
  %137 = getelementptr inbounds %struct.png_struct_def, ptr %136, i32 0, i32 112
  %138 = getelementptr inbounds %struct.png_unknown_chunk_t, ptr %137, i32 0, i32 1
  %139 = load ptr, ptr %138, align 8
  %140 = load i32, ptr %5, align 4
  call void @png_crc_read(ptr noundef %135, ptr noundef %139, i32 noundef %140)
  br label %141

141:                                              ; preds = %134, %131
  %142 = load ptr, ptr %4, align 8
  %143 = call i32 @png_crc_finish(ptr noundef %142, i32 noundef 0)
  store i32 1, ptr %3, align 4
  br label %144

144:                                              ; preds = %141, %126
  %145 = load i32, ptr %3, align 4
  ret i32 %145
}